Certificate:
    Data:
        Version: 3 (0x2)
        Serial Number:
            8e:ac:af:4b:b4:fe:64:b1:cb:00:db:9f:d3:b2:47:a1
        Signature Algorithm: sha256WithRSAEncryption
        Issuer: CN=localhost
        Validity
            Not Before: Jun 28 23:38:27 2021 GMT
            Not After : Oct  1 23:38:27 2023 GMT
        Subject: CN=host
        Subject Public Key Info:
            Public Key Algorithm: rsaEncryption
                RSA Public-Key: (2048 bit)
                Modulus:
                    00:e2:2f:a6:23:4c:bc:88:06:5a:7f:e5:b9:fd:1f:
                    81:76:d6:da:37:6c:d7:46:22:3f:61:3d:d3:19:3d:
                    0f:fa:85:c1:52:0a:2f:7e:be:91:86:8b:a2:24:ee:
                    5d:0f:da:63:fa:9c:d6:b7:26:c4:c6:f4:bb:58:3d:
                    b9:b8:02:c1:7c:f0:1e:86:77:28:3f:c2:a4:b5:19:
                    c6:8d:98:bb:ba:4e:dc:4d:71:92:b4:92:7a:c1:83:
                    8c:b2:64:0e:72:2e:aa:14:f4:83:75:aa:29:d0:80:
                    b5:4a:91:78:a5:cf:2f:ba:18:f4:13:be:78:94:2d:
                    89:ff:cb:0d:ea:a7:9b:10:f0:4d:18:8b:91:ec:d4:
                    14:a2:9b:47:af:69:b9:b5:91:4f:d7:0a:bd:22:61:
                    19:e7:28:b6:b6:68:15:26:e2:c5:47:03:ca:b6:d2:
                    56:ad:59:41:40:df:0d:6a:72:d9:48:40:88:07:85:
                    e2:c6:28:f3:25:90:12:65:67:81:25:bf:56:93:43:
                    a5:16:32:a8:f6:02:e0:a3:d8:c6:41:bc:b3:b4:b2:
                    be:0f:73:1b:d6:13:34:ef:f8:48:e8:9f:17:26:ff:
                    8a:d2:91:d6:50:38:15:7d:85:71:3b:40:8f:ed:24:
                    f8:05:dc:72:58:e2:dd:10:a4:d3:b1:3a:de:b3:08:
                    35:9b
                Exponent: 65537 (0x10001)
        X509v3 extensions:
            X509v3 Basic Constraints: 
                CA:FALSE
            X509v3 Subject Key Identifier: 
                2F:7C:13:2C:92:27:B2:0E:71:5D:64:BF:CB:BC:F2:6B:51:9A:2E:59
            X509v3 Authority Key Identifier: 
                keyid:C9:3B:6F:F7:BB:14:A8:A2:58:8B:DC:7F:69:23:06:45:4F:AE:63:34
                DirName:/CN=localhost
                serial:7B:60:1D:ED:4D:17:0D:1B:CA:AB:43:DD:89:E7:BE:4E:C8:A9:26:C4

            X509v3 Extended Key Usage: 
                TLS Web Client Authentication
            X509v3 Key Usage: 
                Digital Signature
    Signature Algorithm: sha256WithRSAEncryption
         b3:6d:9a:41:97:dd:60:50:93:40:71:f6:27:cb:1e:27:93:cd:
         e1:2c:01:46:3d:07:ed:8e:ec:35:94:ec:49:eb:5d:b6:d1:f3:
         88:1b:3d:d2:78:42:28:8c:1a:4b:fc:1a:e7:a8:c5:4f:8a:d8:
         b5:15:63:48:06:f0:b0:58:5d:9d:af:d2:65:79:e4:46:f2:d2:
         43:8c:ba:27:42:16:d6:9d:e6:de:24:4c:92:0e:31:f4:d5:0a:
         3e:39:c1:6c:5a:77:2d:b4:6f:dc:09:fe:cc:94:a5:88:89:76:
         ba:91:4d:7d:65:39:96:6e:e0:c0:6c:5b:ec:79:de:f2:24:b3:
         42:de:d7:86:ee:32:42:14:60:84:ed:e9:93:18:5e:4b:71:92:
         fd:ba:d8:3a:a3:2f:88:ef:7a:35:be:4d:54:09:d9:94:0a:39:
         c4:13:93:b0:e1:70:59:d4:d6:4a:90:e4:ee:d4:52:cd:11:5e:
         7c:0f:31:b6:44:9a:9f:96:48:dd:0c:aa:58:cc:26:02:39:7c:
         10:33:75:dc:a9:ea:4a:ef:9c:99:71:78:79:ac:96:14:9b:fe:
         dc:8d:bf:88:7a:72:24:ae:25:40:6b:22:eb:a9:23:df:76:cf:
         6b:ad:66:a8:01:2b:bf:e5:1b:23:ed:f8:ba:3e:cd:a3:e0:f5:
         2d:bb:93:c5
-----BEGIN CERTIFICATE-----
MIIDTzCCAjegAwIBAgIRAI6sr0u0/mSxywDbn9OyR6EwDQYJKoZIhvcNAQELBQAw
FDESMBAGA1UEAwwJbG9jYWxob3N0MB4XDTIxMDYyODIzMzgyN1oXDTIzMTAwMTIz
MzgyN1owDzENMAsGA1UEAwwEaG9zdDCCASIwDQYJKoZIhvcNAQEBBQADggEPADCC
AQoCggEBAOIvpiNMvIgGWn/luf0fgXbW2jds10YiP2E90xk9D/qFwVIKL36+kYaL
oiTuXQ/aY/qc1rcmxMb0u1g9ubgCwXzwHoZ3KD/CpLUZxo2Yu7pO3E1xkrSSesGD
jLJkDnIuqhT0g3WqKdCAtUqReKXPL7oY9BO+eJQtif/LDeqnmxDwTRiLkezUFKKb
R69pubWRT9cKvSJhGecotrZoFSbixUcDyrbSVq1ZQUDfDWpy2UhAiAeF4sYo8yWQ
EmVngSW/VpNDpRYyqPYC4KPYxkG8s7Syvg9zG9YTNO/4SOifFyb/itKR1lA4FX2F
cTtAj+0k+AXcclji3RCk07E63rMINZsCAwEAAaOBoDCBnTAJBgNVHRMEAjAAMB0G
A1UdDgQWBBQvfBMskieyDnFdZL/LvPJrUZouWTBPBgNVHSMESDBGgBTJO2/3uxSo
oliL3H9pIwZFT65jNKEYpBYwFDESMBAGA1UEAwwJbG9jYWxob3N0ghR7YB3tTRcN
G8qrQ92J575OyKkmxDATBgNVHSUEDDAKBggrBgEFBQcDAjALBgNVHQ8EBAMCB4Aw
DQYJKoZIhvcNAQELBQADggEBALNtmkGX3WBQk0Bx9ifLHieTzeEsAUY9B+2O7DWU
7EnrXbbR84gbPdJ4QiiMGkv8GueoxU+K2LUVY0gG8LBYXZ2v0mV55Eby0kOMuidC
Ftad5t4kTJIOMfTVCj45wWxady20b9wJ/syUpYiJdrqRTX1lOZZu4MBsW+x53vIk
s0Le14buMkIUYITt6ZMYXktxkv262DqjL4jvejW+TVQJ2ZQKOcQTk7DhcFnU1kqQ
5O7UUs0RXnwPMbZEmp+WSN0MqljMJgI5fBAzddyp6krvnJlxeHmslhSb/tyNv4h6
ciSuJUBrIuupI992z2utZqgBK7/lGyPt+Lo+zaPg9S27k8U=
-----END CERTIFICATE-----
