Certificate:
    Data:
        Version: 3 (0x2)
        Serial Number:
            1f:0a:c4:2c:82:4d:da:56:4e:e1:fb:8e:57:49:3e:e2
        Signature Algorithm: sha256WithRSAEncryption
        Issuer: CN=localhost
        Validity
            Not Before: Jun 28 23:38:27 2021 GMT
            Not After : Oct  1 23:38:27 2023 GMT
        Subject: CN=localhost
        Subject Public Key Info:
            Public Key Algorithm: rsaEncryption
                RSA Public-Key: (2048 bit)
                Modulus:
                    00:bd:26:1b:f4:74:fc:39:40:a5:11:9b:49:fe:c8:
                    b1:74:4e:11:36:3c:ff:16:ee:66:40:de:5e:13:d1:
                    f6:3d:05:ed:de:8d:f8:25:a9:53:84:fc:90:36:4f:
                    1f:e1:52:ee:12:e5:8f:90:11:d0:e0:bc:0d:9d:ff:
                    e6:fa:37:89:93:a5:ab:33:23:4a:fc:c6:04:81:8f:
                    f1:0e:bf:7c:32:9e:47:e5:83:34:73:07:4f:82:52:
                    f6:4d:ed:ed:9a:8f:f2:01:2e:11:3e:ea:7d:35:2f:
                    28:3f:3a:40:0c:c4:30:50:25:c8:5a:75:ef:37:12:
                    23:ee:b3:e4:7f:a7:19:f2:8f:af:e5:e1:c6:56:25:
                    64:9d:9a:d1:89:be:e3:d7:e0:bd:c7:8a:8e:fd:0c:
                    fa:cb:4f:07:bd:4c:8a:1d:bf:40:2e:9b:78:56:42:
                    47:dc:6c:7b:64:b8:c9:a5:a0:b0:1e:cb:4c:fb:24:
                    05:72:2c:d5:52:2d:bb:21:96:3d:b7:05:c4:a1:43:
                    f8:2c:cd:3d:a3:0f:47:11:cc:b7:64:e4:7c:43:b1:
                    19:e4:31:93:52:30:c1:57:8e:7c:d1:24:57:f6:b2:
                    72:4f:81:97:3c:cf:ab:67:ec:6d:1c:13:6a:72:b2:
                    d0:87:3a:96:2d:e6:98:5a:18:f3:64:23:08:d3:70:
                    7e:65
                Exponent: 65537 (0x10001)
        X509v3 extensions:
            X509v3 Basic Constraints: 
                CA:FALSE
            X509v3 Subject Key Identifier: 
                A1:9F:E9:2B:73:E3:96:98:37:52:02:65:29:A4:D6:61:F8:6B:AF:C7
            X509v3 Authority Key Identifier: 
                keyid:C9:3B:6F:F7:BB:14:A8:A2:58:8B:DC:7F:69:23:06:45:4F:AE:63:34
                DirName:/CN=localhost
                serial:7B:60:1D:ED:4D:17:0D:1B:CA:AB:43:DD:89:E7:BE:4E:C8:A9:26:C4

            X509v3 Extended Key Usage: 
                TLS Web Server Authentication
            X509v3 Key Usage: 
                Digital Signature, Key Encipherment
            X509v3 Subject Alternative Name: 
                DNS:localhost
    Signature Algorithm: sha256WithRSAEncryption
         70:f7:75:07:ab:78:8e:25:a5:42:b2:64:5c:b2:3d:a9:60:04:
         4b:36:d2:af:2f:b9:24:7c:f1:87:58:99:f2:73:5f:a8:03:4d:
         1a:b3:a2:2c:f4:be:e4:bd:6b:38:69:95:77:34:1e:10:8e:7b:
         d7:a7:90:b9:08:2a:04:42:96:cc:66:a7:8a:f1:cd:25:71:6a:
         9a:0b:18:39:20:c7:e3:0d:a3:0a:af:d4:88:ed:46:51:2a:c6:
         67:91:7a:14:75:86:e3:11:79:db:06:c4:1b:b2:dc:a0:9f:89:
         7d:4b:e5:07:d6:76:ef:43:36:1e:68:bf:6a:83:5d:bf:10:7b:
         e6:9a:5d:95:61:c9:65:22:51:b8:2c:de:67:47:21:56:ef:57:
         d9:4f:2b:8e:ee:86:02:51:2a:9e:cb:58:6e:bc:26:d5:51:62:
         2a:37:31:5d:cc:22:45:7e:90:50:02:7c:5f:f9:28:3a:3f:7f:
         b2:08:d8:05:95:98:b2:23:c9:8b:df:02:b7:c6:7c:fe:c5:db:
         e4:29:b8:8c:2b:a8:ac:20:36:30:e4:a1:1f:09:ab:b0:f2:a2:
         28:00:30:ef:62:1f:f1:d3:b7:6e:98:5a:1b:4e:c1:2b:cf:60:
         ac:b7:e7:ef:59:7c:6c:99:6c:8f:d4:98:7a:70:3f:fc:f3:db:
         6b:a9:8b:2f
-----BEGIN CERTIFICATE-----
MIIDaTCCAlGgAwIBAgIQHwrELIJN2lZO4fuOV0k+4jANBgkqhkiG9w0BAQsFADAU
MRIwEAYDVQQDDAlsb2NhbGhvc3QwHhcNMjEwNjI4MjMzODI3WhcNMjMxMDAxMjMz
ODI3WjAUMRIwEAYDVQQDDAlsb2NhbGhvc3QwggEiMA0GCSqGSIb3DQEBAQUAA4IB
DwAwggEKAoIBAQC9Jhv0dPw5QKURm0n+yLF0ThE2PP8W7mZA3l4T0fY9Be3ejfgl
qVOE/JA2Tx/hUu4S5Y+QEdDgvA2d/+b6N4mTpaszI0r8xgSBj/EOv3wynkflgzRz
B0+CUvZN7e2aj/IBLhE+6n01Lyg/OkAMxDBQJchade83EiPus+R/pxnyj6/l4cZW
JWSdmtGJvuPX4L3Hio79DPrLTwe9TIodv0Aum3hWQkfcbHtkuMmloLAey0z7JAVy
LNVSLbshlj23BcShQ/gszT2jD0cRzLdk5HxDsRnkMZNSMMFXjnzRJFf2snJPgZc8
z6tn7G0cE2pystCHOpYt5phaGPNkIwjTcH5lAgMBAAGjgbYwgbMwCQYDVR0TBAIw
ADAdBgNVHQ4EFgQUoZ/pK3Pjlpg3UgJlKaTWYfhrr8cwTwYDVR0jBEgwRoAUyTtv
97sUqKJYi9x/aSMGRU+uYzShGKQWMBQxEjAQBgNVBAMMCWxvY2FsaG9zdIIUe2Ad
7U0XDRvKq0Pdiee+TsipJsQwEwYDVR0lBAwwCgYIKwYBBQUHAwEwCwYDVR0PBAQD
AgWgMBQGA1UdEQQNMAuCCWxvY2FsaG9zdDANBgkqhkiG9w0BAQsFAAOCAQEAcPd1
B6t4jiWlQrJkXLI9qWAESzbSry+5JHzxh1iZ8nNfqANNGrOiLPS+5L1rOGmVdzQe
EI5716eQuQgqBEKWzGanivHNJXFqmgsYOSDH4w2jCq/UiO1GUSrGZ5F6FHWG4xF5
2wbEG7LcoJ+JfUvlB9Z270M2Hmi/aoNdvxB75ppdlWHJZSJRuCzeZ0chVu9X2U8r
ju6GAlEqnstYbrwm1VFiKjcxXcwiRX6QUAJ8X/koOj9/sgjYBZWYsiPJi98Ct8Z8
/sXb5Cm4jCuorCA2MOShHwmrsPKiKAAw72If8dO3bphaG07BK89grLfn71l8bJls
j9SYenA//PPba6mLLw==
-----END CERTIFICATE-----
